; Function Attrs: mustprogress nofree nounwind willreturn memory(write) uwtable
define hidden noundef range(i32 0, 4) i32 @_Z10solve_deg3ddddRdS_S_(double noundef %0, double noundef %1, double noundef %2, double noundef %3, ptr nocapture noundef nonnull writeonly align 8 dereferenceable(8) %4, ptr nocapture noundef nonnull writeonly align 8 dereferenceable(8) %5, ptr nocapture noundef nonnull writeonly align 8 dereferenceable(8) %6) local_unnamed_addr #3 {
  %8 = fcmp oeq double %0, 0.000000e+00
  br i1 %8, label %9, label %34

9:                                                ; preds = %7
  %10 = fcmp oeq double %1, 0.000000e+00
  br i1 %10, label %11, label %16

11:                                               ; preds = %9
  %12 = fcmp oeq double %2, 0.000000e+00
  br i1 %12, label %_Z10solve_deg2dddRdS_.exit, label %13

13:                                               ; preds = %11
  %14 = fneg double %3
  %15 = fdiv double %14, %2
  store double %15, ptr %4, align 8
  br label %_Z10solve_deg2dddRdS_.exit

16:                                               ; preds = %9
  store double 0.000000e+00, ptr %6, align 8
  %17 = fmul double %1, -4.000000e+00
  %18 = fmul double %17, %3
  %19 = tail call double @llvm.fmuladd.f64(double %2, double %2, double %18)
  %20 = fcmp olt double %19, 0.000000e+00
  br i1 %20, label %_Z10solve_deg2dddRdS_.exit, label %21

21:                                               ; preds = %16
  %22 = fdiv double 5.000000e-01, %1
  %23 = fcmp oeq double %19, 0.000000e+00
  br i1 %23, label %24, label %27

24:                                               ; preds = %21
  %25 = fneg double %2
  %26 = fmul double %22, %25
  br label %.sink.split.i

27:                                               ; preds = %21
  %28 = tail call double @sqrt(double noundef %19) #8
  %29 = fneg double %2
  %30 = fsub double %28, %2
  %31 = fmul double %22, %30
  %32 = fsub double %29, %28
  %33 = fmul double %22, %32
  br label %.sink.split.i

.sink.split.i:                                    ; preds = %27, %24
  %.sink = phi double [ %26, %24 ], [ %31, %27 ]
  %.sink.i = phi double [ %26, %24 ], [ %33, %27 ]
  %.0.ph.i = phi i32 [ 1, %24 ], [ 2, %27 ]
  store double %.sink, ptr %4, align 8
  store double %.sink.i, ptr %5, align 8
  br label %_Z10solve_deg2dddRdS_.exit

34:                                               ; preds = %7
  %35 = fdiv double 1.000000e+00, %0
  %36 = fmul double %35, %1
  %37 = fmul double %36, %36
  %38 = fmul double %35, %2
  %39 = fmul double %35, %3
  %40 = fneg double %37
  %41 = tail call double @llvm.fmuladd.f64(double %38, double 3.000000e+00, double %40)
  %42 = fdiv double %41, 9.000000e+00
  %43 = fmul double %36, 9.000000e+00
  %44 = fmul double %39, -2.700000e+01
  %45 = tail call double @llvm.fmuladd.f64(double %43, double %38, double %44)
  %46 = fmul double %36, -2.000000e+00
  %47 = tail call double @llvm.fmuladd.f64(double %46, double %37, double %45)
  %48 = fdiv double %47, 5.400000e+01
  %49 = fmul double %42, %42
  %50 = fmul double %42, %49
  %51 = tail call double @llvm.fmuladd.f64(double %48, double %48, double %50)
  %52 = fmul double %36, 0x3FD5555555555555
  %53 = fcmp oeq double %42, 0.000000e+00
  br i1 %53, label %54, label %62

54:                                               ; preds = %34
  %55 = fcmp oeq double %48, 0.000000e+00
  br i1 %55, label %56, label %58

56:                                               ; preds = %54
  %57 = fneg double %52
  store double %57, ptr %6, align 8
  store double %57, ptr %5, align 8
  store double %57, ptr %4, align 8
  br label %_Z10solve_deg2dddRdS_.exit

58:                                               ; preds = %54
  %59 = fmul double %48, 2.000000e+00
  %60 = tail call noundef double @cbrt(double noundef %59) #9
  %61 = fsub double %60, %52
  store double %61, ptr %4, align 8
  br label %_Z10solve_deg2dddRdS_.exit

62:                                               ; preds = %34
  %63 = fcmp ugt double %51, 0.000000e+00
  br i1 %63, label %84, label %64

64:                                               ; preds = %62
  %65 = fneg double %50
  %66 = tail call double @sqrt(double noundef %65) #8
  %67 = fdiv double %48, %66
  %68 = tail call double @acos(double noundef %67) #8
  %69 = fneg double %42
  %70 = tail call double @sqrt(double noundef %69) #8
  %71 = fmul double %70, 2.000000e+00
  %72 = fdiv double %68, 3.000000e+00
  %73 = tail call double @cos(double noundef %72) #8
  %74 = fneg double %52
  %75 = tail call double @llvm.fmuladd.f64(double %71, double %73, double %74)
  store double %75, ptr %4, align 8
  %76 = fadd double %68, 0x401921FB54442D18
  %77 = fdiv double %76, 3.000000e+00
  %78 = tail call double @cos(double noundef %77) #8
  %79 = tail call double @llvm.fmuladd.f64(double %71, double %78, double %74)
  store double %79, ptr %5, align 8
  %80 = fadd double %68, 0x402921FB54442D18
  %81 = fdiv double %80, 3.000000e+00
  %82 = tail call double @cos(double noundef %81) #8
  %83 = tail call double @llvm.fmuladd.f64(double %71, double %82, double %74)
  store double %83, ptr %6, align 8
  br label %_Z10solve_deg2dddRdS_.exit

84:                                               ; preds = %62
  %85 = tail call double @llvm.fabs.f64(double %48)
  %86 = fcmp ogt double %85, 0x3CB0000000000000
  br i1 %86, label %87, label %96

87:                                               ; preds = %84
  %88 = tail call double @sqrt(double noundef %51) #8
  %89 = fadd double %85, %88
  %90 = tail call noundef double @cbrt(double noundef %89) #9
  %91 = fcmp oge double %48, 0.000000e+00
  %92 = fneg double %90
  %93 = select i1 %91, double %90, double %92
  %94 = fdiv double %42, %93
  %95 = fsub double %93, %94
  br label %96

96:                                               ; preds = %87, %84
  %97 = phi double [ %95, %87 ], [ 0.000000e+00, %84 ]
  %98 = fsub double %97, %52
  store double %98, ptr %4, align 8
  br label %_Z10solve_deg2dddRdS_.exit

_Z10solve_deg2dddRdS_.exit:                       ; preds = %.sink.split.i, %16, %11, %96, %64, %58, %56, %13
  %.0 = phi i32 [ 1, %13 ], [ 3, %56 ], [ 1, %58 ], [ 3, %64 ], [ 1, %96 ], [ 0, %11 ], [ 0, %16 ], [ %.0.ph.i, %.sink.split.i ]
  ret i32 %.0
}